target datalayout = "e-m:e-p270:32:32-p271:32:32-p272:64:64-i64:64-i128:128-f80:128-n8:16:32:64-S128"
target triple = "x86_64-pc-linux-gnu"

@tcg_env = external global ptr, align 8

; Function Attrs: nounwind sspstrong uwtable
define internal void @expand_cmp_vec(i32 noundef %0, i32 noundef %1, i32 noundef %2, i32 noundef %3, i32 noundef %4, i32 noundef %5, i32 noundef %6, i32 noundef %7) #0 {
  %9 = alloca i32, align 4
  %10 = alloca i32, align 4
  %11 = alloca i32, align 4
  %12 = alloca i32, align 4
  %13 = alloca i32, align 4
  %14 = alloca i32, align 4
  %15 = alloca i32, align 4
  %16 = alloca i32, align 4
  %17 = alloca i32, align 4
  %18 = alloca ptr, align 8
  %19 = alloca ptr, align 8
  %20 = alloca ptr, align 8
  store i32 %0, ptr %9, align 4
  store i32 %1, ptr %10, align 4
  store i32 %2, ptr %11, align 4
  store i32 %3, ptr %12, align 4
  store i32 %4, ptr %13, align 4
  store i32 %5, ptr %14, align 4
  store i32 %6, ptr %15, align 4
  store i32 %7, ptr %16, align 4
  call void @llvm.lifetime.start.p0(i64 4, ptr %17) #10
  store i32 0, ptr %17, align 4
  br label %21

21:                                               ; preds = %56, %8
  %22 = load i32, ptr %17, align 4
  %23 = load i32, ptr %13, align 4
  %24 = icmp ult i32 %22, %23
  br i1 %24, label %26, label %25

25:                                               ; preds = %21
  call void @llvm.lifetime.end.p0(i64 4, ptr %17) #10
  br label %60

26:                                               ; preds = %21
  call void @llvm.lifetime.start.p0(i64 8, ptr %18) #10
  %27 = load i32, ptr %15, align 4
  %28 = call ptr @tcg_temp_new_vec(i32 noundef %27)
  store ptr %28, ptr %18, align 8
  call void @llvm.lifetime.start.p0(i64 8, ptr %19) #10
  %29 = load i32, ptr %15, align 4
  %30 = call ptr @tcg_temp_new_vec(i32 noundef %29)
  store ptr %30, ptr %19, align 8
  call void @llvm.lifetime.start.p0(i64 8, ptr %20) #10
  %31 = load i32, ptr %15, align 4
  %32 = call ptr @tcg_temp_new_vec(i32 noundef %31)
  store ptr %32, ptr %20, align 8
  %33 = load ptr, ptr %18, align 8
  %34 = load ptr, ptr @tcg_env, align 8
  %35 = load i32, ptr %11, align 4
  %36 = load i32, ptr %17, align 4
  %37 = add i32 %35, %36
  %38 = zext i32 %37 to i64
  call void @tcg_gen_ld_vec(ptr noundef %33, ptr noundef %34, i64 noundef %38)
  %39 = load ptr, ptr %19, align 8
  %40 = load ptr, ptr @tcg_env, align 8
  %41 = load i32, ptr %12, align 4
  %42 = load i32, ptr %17, align 4
  %43 = add i32 %41, %42
  %44 = zext i32 %43 to i64
  call void @tcg_gen_ld_vec(ptr noundef %39, ptr noundef %40, i64 noundef %44)
  %45 = load i32, ptr %16, align 4
  %46 = load i32, ptr %9, align 4
  %47 = load ptr, ptr %20, align 8
  %48 = load ptr, ptr %18, align 8
  %49 = load ptr, ptr %19, align 8
  call void @tcg_gen_cmp_vec(i32 noundef %45, i32 noundef %46, ptr noundef %47, ptr noundef %48, ptr noundef %49)
  %50 = load ptr, ptr %20, align 8
  %51 = load ptr, ptr @tcg_env, align 8
  %52 = load i32, ptr %10, align 4
  %53 = load i32, ptr %17, align 4
  %54 = add i32 %52, %53
  %55 = zext i32 %54 to i64
  call void @tcg_gen_st_vec(ptr noundef %50, ptr noundef %51, i64 noundef %55)
  call void @llvm.lifetime.end.p0(i64 8, ptr %20) #10
  call void @llvm.lifetime.end.p0(i64 8, ptr %19) #10
  call void @llvm.lifetime.end.p0(i64 8, ptr %18) #10
  br label %56

56:                                               ; preds = %26
  %57 = load i32, ptr %14, align 4
  %58 = load i32, ptr %17, align 4
  %59 = add i32 %58, %57
  store i32 %59, ptr %17, align 4
  br label %21, !llvm.loop !46

60:                                               ; preds = %25
  ret void
}