; Function Attrs: nounwind sspstrong uwtable
define internal fastcc void @expand_cmp_vec(i32 noundef %0, i32 noundef %1, i32 noundef %2, i32 noundef %3, i32 noundef %4, i32 noundef range(i32 8, 33) %5, i32 noundef range(i32 3, 6) %6, i32 noundef range(i32 2, 0) %7) unnamed_addr #2 {
  %.not = icmp eq i32 %4, 0
  br i1 %.not, label %._crit_edge, label %.lr.ph

._crit_edge:                                      ; preds = %.lr.ph, %8
  ret void

.lr.ph:                                           ; preds = %8, %.lr.ph
  %.020 = phi i32 [ %21, %.lr.ph ], [ 0, %8 ]
  %9 = tail call ptr @tcg_temp_new_vec(i32 noundef %6) #10
  %10 = tail call ptr @tcg_temp_new_vec(i32 noundef %6) #10
  %11 = tail call ptr @tcg_temp_new_vec(i32 noundef %6) #10
  %12 = load ptr, ptr @tcg_env, align 8
  %13 = add i32 %.020, %2
  %14 = zext i32 %13 to i64
  tail call void @tcg_gen_ld_vec(ptr noundef %9, ptr noundef %12, i64 noundef %14) #10
  %15 = load ptr, ptr @tcg_env, align 8
  %16 = add i32 %.020, %3
  %17 = zext i32 %16 to i64
  tail call void @tcg_gen_ld_vec(ptr noundef %10, ptr noundef %15, i64 noundef %17) #10
  tail call void @tcg_gen_cmp_vec(i32 noundef %7, i32 noundef %0, ptr noundef %11, ptr noundef %9, ptr noundef %10) #10
  %18 = load ptr, ptr @tcg_env, align 8
  %19 = add i32 %.020, %1
  %20 = zext i32 %19 to i64
  tail call void @tcg_gen_st_vec(ptr noundef %11, ptr noundef %18, i64 noundef %20) #10
  %21 = add i32 %.020, %5
  %22 = icmp ult i32 %21, %4
  br i1 %22, label %.lr.ph, label %._crit_edge, !llvm.loop !45
}